target datalayout = "e-m:e-p270:32:32-p271:32:32-p272:64:64-i64:64-i128:128-f80:128-n8:16:32:64-S128"
target triple = "x86_64-pc-linux-gnu"

%class.XPhysicalMemorySegment = type <{ i64, i64, i8, [7 x i8] }>
%class.XPhysicalMemoryManager = type { %class.XPhysicalMemoryBacking, %class.XMemoryManager }
%class.XPhysicalMemoryBacking = type <{ i32, [4 x i8], i64, i64, i64, i64, i8, [7 x i8] }>
%class.XMemoryManager = type { %class.XLock, %class.XList, %"struct.XMemoryManager::Callbacks" }
%class.XLock = type { %class.PlatformMutex }
%class.PlatformMutex = type { %union.pthread_mutex_t }
%union.pthread_mutex_t = type { %struct.__pthread_mutex_s }
%struct.__pthread_mutex_s = type { i32, i32, i32, i32, i32, i16, i16, %struct.__pthread_internal_list }
%struct.__pthread_internal_list = type { ptr, ptr }
%class.XList = type { %class.XListNode, i64 }
%class.XListNode = type { ptr, ptr }
%"struct.XMemoryManager::Callbacks" = type { ptr, ptr, ptr, ptr, ptr, ptr }

; Function Attrs: mustprogress nounwind uwtable
define linkonce_odr hidden void @_ZN22XPhysicalMemorySegmentC2Emmb(ptr noundef nonnull align 8 dereferenceable(17) %0, i64 noundef %1, i64 noundef %2, i1 noundef zeroext %3) unnamed_addr #1 comdat align 2 {
  %5 = alloca ptr, align 8
  %6 = alloca i64, align 8
  %7 = alloca i64, align 8
  %8 = alloca i8, align 1
  store ptr %0, ptr %5, align 8
  store i64 %1, ptr %6, align 8
  store i64 %2, ptr %7, align 8
  %9 = zext i1 %3 to i8
  store i8 %9, ptr %8, align 1
  %10 = load ptr, ptr %5, align 8
  %11 = getelementptr inbounds %class.XPhysicalMemorySegment, ptr %10, i32 0, i32 0
  %12 = load i64, ptr %6, align 8
  store i64 %12, ptr %11, align 8
  %13 = getelementptr inbounds %class.XPhysicalMemorySegment, ptr %10, i32 0, i32 1
  %14 = load i64, ptr %6, align 8
  %15 = load i64, ptr %7, align 8
  %16 = add i64 %14, %15
  store i64 %16, ptr %13, align 8
  %17 = getelementptr inbounds %class.XPhysicalMemorySegment, ptr %10, i32 0, i32 2
  %18 = load i8, ptr %8, align 1
  %19 = trunc i8 %18 to i1
  %20 = zext i1 %19 to i8
  store i8 %20, ptr %17, align 8
  ret void
}

; Function Attrs: mustprogress nounwind uwtable
define hidden void @_ZN22XPhysicalMemoryManager5allocER15XPhysicalMemorym(ptr noundef nonnull align 8 dereferenceable(160) %0, ptr noundef nonnull align 8 dereferenceable(16) %1, i64 noundef %2) #1 align 2 {
  %4 = alloca ptr, align 8
  %5 = alloca ptr, align 8
  %6 = alloca i64, align 8
  %7 = alloca i64, align 8
  %8 = alloca i64, align 8
  %9 = alloca %class.XPhysicalMemorySegment, align 8
  store ptr %0, ptr %4, align 8
  store ptr %1, ptr %5, align 8
  store i64 %2, ptr %6, align 8
  %10 = load ptr, ptr %4, align 8
  br label %11

11:                                               ; preds = %14, %3
  %12 = load i64, ptr %6, align 8
  %13 = icmp ugt i64 %12, 0
  br i1 %13, label %14, label %24

14:                                               ; preds = %11
  store i64 0, ptr %7, align 8
  %15 = getelementptr inbounds %class.XPhysicalMemoryManager, ptr %10, i32 0, i32 1
  %16 = load i64, ptr %6, align 8
  %17 = call noundef i64 @_ZN14XMemoryManager25alloc_low_address_at_mostEmPm(ptr noundef nonnull align 8 dereferenceable(112) %15, i64 noundef %16, ptr noundef %7)
  store i64 %17, ptr %8, align 8
  %18 = load ptr, ptr %5, align 8
  %19 = load i64, ptr %8, align 8
  %20 = load i64, ptr %7, align 8
  call void @_ZN22XPhysicalMemorySegmentC2Emmb(ptr noundef nonnull align 8 dereferenceable(17) %9, i64 noundef %19, i64 noundef %20, i1 noundef zeroext false)
  call void @_ZN15XPhysicalMemory11add_segmentERK22XPhysicalMemorySegment(ptr noundef nonnull align 8 dereferenceable(16) %18, ptr noundef nonnull align 8 dereferenceable(17) %9)
  %21 = load i64, ptr %7, align 8
  %22 = load i64, ptr %6, align 8
  %23 = sub i64 %22, %21
  store i64 %23, ptr %6, align 8
  br label %11, !llvm.loop !16

24:                                               ; preds = %11
  ret void
}